; Function Attrs: mustprogress nofree norecurse nosync nounwind willreturn memory(read, argmem: readwrite, inaccessiblemem: none) uwtable
define void @_ZN5arrow7compute25InversePermutationOptionsC2ElSt10shared_ptrINS_8DataTypeEE(ptr noundef nonnull writeonly align 8 captures(none) dereferenceable(40) initializes((0, 40)) %0, i64 noundef %1, ptr noundef captures(none) %2) unnamed_addr #3 align 2 {
  %4 = load ptr, ptr @_ZN5arrow7compute8internal12_GLOBAL__N_130kInversePermutationOptionsTypeE, align 8, !tbaa !32
  %5 = getelementptr inbounds nuw i8, ptr %0, i64 8
  store ptr %4, ptr %5, align 8, !tbaa !35
  store ptr getelementptr inbounds nuw inrange(-16, 16) (i8, ptr @_ZTVN5arrow7compute25InversePermutationOptionsE, i64 16), ptr %0, align 8, !tbaa !37
  %6 = getelementptr inbounds nuw i8, ptr %0, i64 16
  store i64 %1, ptr %6, align 8, !tbaa !107
  %7 = getelementptr inbounds nuw i8, ptr %0, i64 24
  %8 = load ptr, ptr %2, align 8, !tbaa !48
  store ptr %8, ptr %7, align 8, !tbaa !48
  %9 = getelementptr inbounds nuw i8, ptr %0, i64 32
  store ptr null, ptr %9, align 8, !tbaa !53
  %10 = getelementptr inbounds nuw i8, ptr %2, i64 8
  %11 = load ptr, ptr %10, align 8, !tbaa !53
  store ptr null, ptr %10, align 8, !tbaa !53
  store ptr %11, ptr %9, align 8, !tbaa !53
  store ptr null, ptr %2, align 8, !tbaa !48
  ret void
}